; Function Attrs: mustprogress nounwind uwtable
define void @_ZN4base15SparseHistogramD2Ev(ptr noundef nonnull align 8 dereferenceable(112) initializes((0, 8)) %0) unnamed_addr #5 align 2 personality ptr @__gxx_personality_v0 {
  store ptr getelementptr inbounds nuw inrange(-16, 144) (i8, ptr @_ZTVN4base15SparseHistogramE, i64 16), ptr %0, align 8, !tbaa !16
  %2 = getelementptr inbounds nuw i8, ptr %0, i64 104
  %3 = load ptr, ptr %2, align 8, !tbaa !20
  %.not.i = icmp eq ptr %3, null
  br i1 %.not.i, label %_ZNSt10unique_ptrIN4base16HistogramSamplesESt14default_deleteIS1_EED2Ev.exit, label %_ZNKSt14default_deleteIN4base16HistogramSamplesEEclEPS1_.exit.i

_ZNKSt14default_deleteIN4base16HistogramSamplesEEclEPS1_.exit.i: ; preds = %1
  %4 = load ptr, ptr %3, align 8, !tbaa !16
  %5 = getelementptr inbounds nuw i8, ptr %4, i64 8
  %6 = load ptr, ptr %5, align 8
  tail call void %6(ptr noundef nonnull align 8 dereferenceable(40) %3) #14
  br label %_ZNSt10unique_ptrIN4base16HistogramSamplesESt14default_deleteIS1_EED2Ev.exit

_ZNSt10unique_ptrIN4base16HistogramSamplesESt14default_deleteIS1_EED2Ev.exit: ; preds = %1, %_ZNKSt14default_deleteIN4base16HistogramSamplesEEclEPS1_.exit.i
  store ptr null, ptr %2, align 8, !tbaa !20
  %7 = getelementptr inbounds nuw i8, ptr %0, i64 96
  %8 = load ptr, ptr %7, align 8, !tbaa !20
  %.not.i1 = icmp eq ptr %8, null
  br i1 %.not.i1, label %_ZNSt10unique_ptrIN4base16HistogramSamplesESt14default_deleteIS1_EED2Ev.exit3, label %_ZNKSt14default_deleteIN4base16HistogramSamplesEEclEPS1_.exit.i2

_ZNKSt14default_deleteIN4base16HistogramSamplesEEclEPS1_.exit.i2: ; preds = %_ZNSt10unique_ptrIN4base16HistogramSamplesESt14default_deleteIS1_EED2Ev.exit
  %9 = load ptr, ptr %8, align 8, !tbaa !16
  %10 = getelementptr inbounds nuw i8, ptr %9, i64 8
  %11 = load ptr, ptr %10, align 8
  tail call void %11(ptr noundef nonnull align 8 dereferenceable(40) %8) #14
  br label %_ZNSt10unique_ptrIN4base16HistogramSamplesESt14default_deleteIS1_EED2Ev.exit3

_ZNSt10unique_ptrIN4base16HistogramSamplesESt14default_deleteIS1_EED2Ev.exit3: ; preds = %_ZNSt10unique_ptrIN4base16HistogramSamplesESt14default_deleteIS1_EED2Ev.exit, %_ZNKSt14default_deleteIN4base16HistogramSamplesEEclEPS1_.exit.i2
  store ptr null, ptr %7, align 8, !tbaa !20
  %12 = getelementptr inbounds nuw i8, ptr %0, i64 48
  tail call void @_ZN4base8internal8LockImplD1Ev(ptr noundef nonnull align 8 dereferenceable(40) %12) #14
  tail call void @_ZN4base13HistogramBaseD2Ev(ptr noundef nonnull align 8 dereferenceable(44) %0) #14
  ret void
}